target datalayout = "e-m:e-p270:32:32-p271:32:32-p272:64:64-i64:64-i128:128-f80:128-n8:16:32:64-S128"
target triple = "x86_64-pc-linux-gnu"

%class.CodeBuffer = type { ptr, %class.CodeSection, %class.CodeSection, %class.CodeSection, ptr, ptr, ptr, i32, ptr, %class.OopRecorder, ptr, ptr, ptr, ptr, ptr, i8, i32 }
%class.CodeSection = type { ptr, ptr, ptr, ptr, ptr, ptr, ptr, ptr, i8, i8, i32, i8, ptr }
%class.OopRecorder = type { %class.ValueRecorder, %class.ValueRecorder.0, ptr }
%class.ValueRecorder = type <{ ptr, ptr, ptr, ptr, i8, [7 x i8] }>
%class.ValueRecorder.0 = type <{ ptr, ptr, ptr, ptr, i8, [7 x i8] }>

; Function Attrs: mustprogress nounwind uwtable
define hidden noundef zeroext i1 @_ZN10CodeBuffer14finalize_stubsEv(ptr noundef nonnull align 8 dereferenceable(448) %0) #1 align 2 {
  %2 = alloca i1, align 1
  %3 = alloca ptr, align 8
  store ptr %0, ptr %3, align 8
  %4 = load ptr, ptr %3, align 8
  %5 = getelementptr inbounds %class.CodeBuffer, ptr %4, i32 0, i32 15
  %6 = load i8, ptr %5, align 8
  %7 = trunc i8 %6 to i1
  br i1 %7, label %8, label %11

8:                                                ; preds = %1
  %9 = call noundef zeroext i1 @_ZN10CodeBuffer17pd_finalize_stubsEv(ptr noundef nonnull align 8 dereferenceable(448) %4)
  br i1 %9, label %11, label %10

10:                                               ; preds = %8
  store i1 false, ptr %2, align 1
  br label %13

11:                                               ; preds = %8, %1
  %12 = getelementptr inbounds %class.CodeBuffer, ptr %4, i32 0, i32 15
  store i8 0, ptr %12, align 8
  store i1 true, ptr %2, align 1
  br label %13

13:                                               ; preds = %11, %10
  %14 = load i1, ptr %2, align 1
  ret i1 %14
}