; Function Attrs: mustprogress nounwind uwtable
define hidden noundef zeroext i1 @_ZN10CodeBuffer14finalize_stubsEv(ptr noundef nonnull align 8 dereferenceable(448) %0) local_unnamed_addr #0 align 2 {
  %2 = getelementptr inbounds i8, ptr %0, i64 440
  %3 = load i8, ptr %2, align 8
  %4 = trunc i8 %3 to i1
  br i1 %4, label %5, label %7

5:                                                ; preds = %1
  %6 = tail call noundef zeroext i1 @_ZN10CodeBuffer17pd_finalize_stubsEv(ptr noundef nonnull align 8 dereferenceable(448) %0) #16
  br i1 %6, label %7, label %8

7:                                                ; preds = %5, %1
  store i8 0, ptr %2, align 8
  br label %8

8:                                                ; preds = %5, %7
  %.0 = phi i1 [ true, %7 ], [ false, %5 ]
  ret i1 %.0
}